((lp1
I1
aI2
aI3
aI4
aI5
aI8
aI10
aI50
aI100
aI1000
aI5000
aI10000
aI50000
a(lp2
F2.1268291473388672
aF1.361191987991333
aF1.0265848636627197
aF0.87804102897644043
aF0.83785319328308105
aF0.77833008766174316
aF0.75549411773681641
aF0.68255209922790527
aF0.67144894599914551
aF0.67022895812988281
aF0.66848015785217285
aF0.78441190719604492
aF1.3233509063720703
aI0
I6250
F0.66846799850463867
t.