((lp1
I1
aI2
aI4
aI8
aI16
aI32
aI64
a(lp2
F2.4553751945495605
aF1.4201300144195557
aF0.89144492149353027
aF0.77894902229309082
aF0.72510218620300293
aF0.69208812713623047
aF0.68234610557556152
aI0
I6250
F0.66536521911621094
t.