((lp1
I1
aI2
aI3
aI4
aI5
aI8
aI10
aI50
aI100
aI1000
aI5000
aI10000
aI50000
a(lp2
F2.1589269638061523
aF1.2521090507507324
aF1.0291538238525391
aF0.87548017501831055
aF0.83542203903198242
aF0.76732611656188965
aF0.74420404434204102
aF0.67291808128356934
aF0.66298294067382812
aF0.65922212600708008
aF0.66249823570251465
aF0.77402591705322266
aF1.3019478321075439
aI0
I6250
F0.6684110164642334
t.