(lp1
(dp2
S'estimate'
p3
I1073741824
sS'size'
p4
I416
sS'name'
p5
S'Morris Counter'
p6
sS'time'
p7
F750.91865468025208
sa(dp8
g3
I1048576
sg4
I416
sg5
S'Log Log Register'
p9
sg7
F1690.4389050006866
sa(dp10
g3
I4522232
sg4
I23121520
sg5
S'LogLog'
p11
sg7
F2112.2002909183502
sa(dp12
g3
I1628946
sg4
I23121520
sg5
S'SuperLogLog'
p13
sg7
F2416.4608347415924
sa(dp14
g3
I4983171
sg4
I577880
sg5
S'HyperLogLog'
p15
sg7
F2906.5975527763367
sa(dp16
g3
I4912818
sg4
L18704L
sg5
S'KMinValues'
p17
sg7
F3502.6565506458282
sa(dp18
g3
I4949358
sg4
I6936
sg5
S'ScalingBloom'
p19
sg7
F10392.013652801514
sa(dp20
S'estimate'
p21
I4956262
sS'size'
p22
I1148708949
sS'name'
p23
S'Baseline'
p24
sS'time'
p25
F4036.6814231899998
sa.